target datalayout = "e-m:e-p270:32:32-p271:32:32-p272:64:64-i64:64-i128:128-f80:128-n8:16:32:64-S128"
target triple = "x86_64-pc-linux-gnu"

%struct._php_json_scanner = type { ptr, ptr, ptr, ptr, ptr, ptr, ptr, %struct._zval_struct, i32, i32, i32, i32, i32, i32 }
%struct._zval_struct = type { %union._zend_value, %union.anon, %union.anon.2 }
%union._zend_value = type { i64 }
%union.anon = type { i32 }
%union.anon.2 = type { i32 }

; Function Attrs: nounwind uwtable
define hidden void @php_json_scanner_init(ptr noundef %0, ptr noundef %1, i64 noundef %2, i32 noundef %3) #0 {
  %5 = alloca ptr, align 8
  %6 = alloca ptr, align 8
  %7 = alloca i64, align 8
  %8 = alloca i32, align 4
  store ptr %0, ptr %5, align 8
  store ptr %1, ptr %6, align 8
  store i64 %2, ptr %7, align 8
  store i32 %3, ptr %8, align 4
  %9 = load ptr, ptr %6, align 8
  %10 = load ptr, ptr %5, align 8
  %11 = getelementptr inbounds %struct._php_json_scanner, ptr %10, i32 0, i32 0
  store ptr %9, ptr %11, align 8
  %12 = load ptr, ptr %6, align 8
  %13 = load i64, ptr %7, align 8
  %14 = getelementptr inbounds i8, ptr %12, i64 %13
  %15 = load ptr, ptr %5, align 8
  %16 = getelementptr inbounds %struct._php_json_scanner, ptr %15, i32 0, i32 2
  store ptr %14, ptr %16, align 8
  %17 = load i32, ptr %8, align 4
  %18 = load ptr, ptr %5, align 8
  %19 = getelementptr inbounds %struct._php_json_scanner, ptr %18, i32 0, i32 10
  store i32 %17, ptr %19, align 8
  %20 = load ptr, ptr %5, align 8
  %21 = getelementptr inbounds %struct._php_json_scanner, ptr %20, i32 0, i32 9
  store i32 0, ptr %21, align 4
  ret void
}