; Function Attrs: mustprogress nofree norecurse nosync nounwind willreturn memory(argmem: write) uwtable
define hidden void @php_json_scanner_init(ptr nocapture noundef writeonly %0, ptr noundef %1, i64 noundef %2, i32 noundef %3) local_unnamed_addr #0 {
  store ptr %1, ptr %0, align 8
  %5 = getelementptr inbounds i8, ptr %1, i64 %2
  %6 = getelementptr inbounds i8, ptr %0, i64 16
  store ptr %5, ptr %6, align 8
  %7 = getelementptr inbounds i8, ptr %0, i64 80
  store i32 %3, ptr %7, align 8
  %8 = getelementptr inbounds i8, ptr %0, i64 76
  store i32 0, ptr %8, align 4
  ret void
}